; Function Attrs: mustprogress uwtable
define noundef zeroext i1 @_ZNK6icu_7713DecimalFormat16fastFormatDoubleEdRNS_13UnicodeStringE(ptr noundef nonnull readonly align 8 captures(none) dereferenceable(72) %0, double noundef %1, ptr noundef nonnull align 8 dereferenceable(64) %2) local_unnamed_addr #1 align 2 {
  %4 = getelementptr inbounds nuw i8, ptr %0, i64 64
  %5 = load ptr, ptr %4, align 8, !tbaa !25
  %6 = getelementptr inbounds nuw i8, ptr %5, i64 4528
  %7 = load i8, ptr %6, align 8, !tbaa !112, !range !45, !noundef !49
  %8 = trunc nuw i8 %7 to i1
  %9 = fcmp ord double %1, 0.000000e+00
  %or.cond14.not = and i1 %9, %8
  br i1 %or.cond14.not, label %10, label %19

10:                                               ; preds = %3
  %11 = tail call double @uprv_trunc_77(double noundef %1)
  %12 = fcmp une double %11, %1
  %13 = fcmp ole double %1, 0xC1E0000000000000
  %or.cond = or i1 %13, %12
  %14 = fcmp ogt double %1, 0x41DFFFFFFFC00000
  %or.cond3 = or i1 %14, %or.cond
  br i1 %or.cond3, label %19, label %15

15:                                               ; preds = %10
  %16 = fptosi double %1 to i32
  %17 = bitcast double %1 to i64
  %18 = icmp slt i64 %17, 0
  tail call void @_ZNK6icu_7713DecimalFormat17doFastFormatInt32EibRNS_13UnicodeStringE(ptr noundef nonnull align 8 dereferenceable(72) %0, i32 noundef %16, i1 noundef zeroext %18, ptr noundef nonnull align 8 dereferenceable(64) %2)
  br label %19

19:                                               ; preds = %10, %3, %15
  %.0 = phi i1 [ true, %15 ], [ false, %3 ], [ false, %10 ]
  ret i1 %.0
}